target datalayout = "e-m:e-p270:32:32-p271:32:32-p272:64:64-i64:64-i128:128-f80:128-n8:16:32:64-S128"
target triple = "x86_64-pc-linux-gnu"

%"struct.cv::ppf_match_3d::HSHTBL_i" = type { i64, ptr, ptr }
%"struct.cv::ppf_match_3d::hashnode_i" = type { i32, ptr, ptr }

; Function Attrs: mustprogress nounwind uwtable
define hidden noundef i32 @_ZN2cv12ppf_match_3d21hashtableInsertHashedEPNS0_8HSHTBL_iEjPv(ptr noundef %0, i32 noundef %1, ptr noundef %2) #4 {
  %4 = alloca i32, align 4
  %5 = alloca ptr, align 8
  %6 = alloca i32, align 4
  %7 = alloca ptr, align 8
  %8 = alloca ptr, align 8
  %9 = alloca i64, align 8
  %10 = alloca i32, align 4
  store ptr %0, ptr %5, align 8, !tbaa !11
  store i32 %1, ptr %6, align 4, !tbaa !3
  store ptr %2, ptr %7, align 8, !tbaa !9
  call void @llvm.lifetime.start.p0(i64 8, ptr %8) #3
  call void @llvm.lifetime.start.p0(i64 8, ptr %9) #3
  %11 = load i32, ptr %6, align 4, !tbaa !3
  %12 = zext i32 %11 to i64
  %13 = load ptr, ptr %5, align 8, !tbaa !11
  %14 = getelementptr inbounds nuw %"struct.cv::ppf_match_3d::HSHTBL_i", ptr %13, i32 0, i32 0
  %15 = load i64, ptr %14, align 8, !tbaa !17
  %16 = urem i64 %12, %15
  store i64 %16, ptr %9, align 8, !tbaa !7
  %17 = load ptr, ptr %5, align 8, !tbaa !11
  %18 = getelementptr inbounds nuw %"struct.cv::ppf_match_3d::HSHTBL_i", ptr %17, i32 0, i32 1
  %19 = load ptr, ptr %18, align 8, !tbaa !13
  %20 = load i64, ptr %9, align 8, !tbaa !7
  %21 = getelementptr inbounds nuw ptr, ptr %19, i64 %20
  %22 = load ptr, ptr %21, align 8, !tbaa !19
  store ptr %22, ptr %8, align 8, !tbaa !19
  br label %23

23:                                               ; preds = %36, %3
  %24 = load ptr, ptr %8, align 8, !tbaa !19
  %25 = icmp ne ptr %24, null
  br i1 %25, label %26, label %40

26:                                               ; preds = %23
  %27 = load ptr, ptr %8, align 8, !tbaa !19
  %28 = getelementptr inbounds nuw %"struct.cv::ppf_match_3d::hashnode_i", ptr %27, i32 0, i32 0
  %29 = load i32, ptr %28, align 8, !tbaa !26
  %30 = load i32, ptr %6, align 4, !tbaa !3
  %31 = icmp ne i32 %29, %30
  br i1 %31, label %32, label %36

32:                                               ; preds = %26
  %33 = load ptr, ptr %7, align 8, !tbaa !9
  %34 = load ptr, ptr %8, align 8, !tbaa !19
  %35 = getelementptr inbounds nuw %"struct.cv::ppf_match_3d::hashnode_i", ptr %34, i32 0, i32 1
  store ptr %33, ptr %35, align 8, !tbaa !27
  store i32 0, ptr %4, align 4
  store i32 1, ptr %10, align 4
  br label %66

36:                                               ; preds = %26
  %37 = load ptr, ptr %8, align 8, !tbaa !19
  %38 = getelementptr inbounds nuw %"struct.cv::ppf_match_3d::hashnode_i", ptr %37, i32 0, i32 2
  %39 = load ptr, ptr %38, align 8, !tbaa !21
  store ptr %39, ptr %8, align 8, !tbaa !19
  br label %23, !llvm.loop !29

40:                                               ; preds = %23
  %41 = call noalias ptr @malloc(i64 noundef 24) #12
  store ptr %41, ptr %8, align 8, !tbaa !19
  %42 = load ptr, ptr %8, align 8, !tbaa !19
  %43 = icmp ne ptr %42, null
  br i1 %43, label %45, label %44

44:                                               ; preds = %40
  store i32 -1, ptr %4, align 4
  store i32 1, ptr %10, align 4
  br label %66

45:                                               ; preds = %40
  %46 = load i32, ptr %6, align 4, !tbaa !3
  %47 = load ptr, ptr %8, align 8, !tbaa !19
  %48 = getelementptr inbounds nuw %"struct.cv::ppf_match_3d::hashnode_i", ptr %47, i32 0, i32 0
  store i32 %46, ptr %48, align 8, !tbaa !26
  %49 = load ptr, ptr %7, align 8, !tbaa !9
  %50 = load ptr, ptr %8, align 8, !tbaa !19
  %51 = getelementptr inbounds nuw %"struct.cv::ppf_match_3d::hashnode_i", ptr %50, i32 0, i32 1
  store ptr %49, ptr %51, align 8, !tbaa !27
  %52 = load ptr, ptr %5, align 8, !tbaa !11
  %53 = getelementptr inbounds nuw %"struct.cv::ppf_match_3d::HSHTBL_i", ptr %52, i32 0, i32 1
  %54 = load ptr, ptr %53, align 8, !tbaa !13
  %55 = load i64, ptr %9, align 8, !tbaa !7
  %56 = getelementptr inbounds nuw ptr, ptr %54, i64 %55
  %57 = load ptr, ptr %56, align 8, !tbaa !19
  %58 = load ptr, ptr %8, align 8, !tbaa !19
  %59 = getelementptr inbounds nuw %"struct.cv::ppf_match_3d::hashnode_i", ptr %58, i32 0, i32 2
  store ptr %57, ptr %59, align 8, !tbaa !21
  %60 = load ptr, ptr %8, align 8, !tbaa !19
  %61 = load ptr, ptr %5, align 8, !tbaa !11
  %62 = getelementptr inbounds nuw %"struct.cv::ppf_match_3d::HSHTBL_i", ptr %61, i32 0, i32 1
  %63 = load ptr, ptr %62, align 8, !tbaa !13
  %64 = load i64, ptr %9, align 8, !tbaa !7
  %65 = getelementptr inbounds nuw ptr, ptr %63, i64 %64
  store ptr %60, ptr %65, align 8, !tbaa !19
  store i32 0, ptr %4, align 4
  store i32 1, ptr %10, align 4
  br label %66

66:                                               ; preds = %45, %44, %32
  call void @llvm.lifetime.end.p0(i64 8, ptr %9) #3
  call void @llvm.lifetime.end.p0(i64 8, ptr %8) #3
  %67 = load i32, ptr %4, align 4
  ret i32 %67
}