; Function Attrs: mustprogress nofree nounwind uwtable
define hidden noundef range(i32 -1, 1) i32 @_ZN2cv12ppf_match_3d21hashtableInsertHashedEPNS0_8HSHTBL_iEjPv(ptr noundef readonly captures(none) %0, i32 noundef %1, ptr noundef %2) local_unnamed_addr #11 {
  %4 = zext i32 %1 to i64
  %5 = load i64, ptr %0, align 8, !tbaa !11
  %6 = urem i64 %4, %5
  %7 = getelementptr inbounds nuw i8, ptr %0, i64 8
  %8 = load ptr, ptr %7, align 8, !tbaa !3
  %9 = getelementptr inbounds nuw ptr, ptr %8, i64 %6
  %.02126 = load ptr, ptr %9, align 8, !tbaa !13
  %.not27 = icmp eq ptr %.02126, null
  br i1 %.not27, label %._crit_edge, label %.lr.ph

.lr.ph:                                           ; preds = %3, %13
  %.02128 = phi ptr [ %.021, %13 ], [ %.02126, %3 ]
  %10 = load i32, ptr %.02128, align 8, !tbaa !21
  %.not24 = icmp eq i32 %10, %1
  br i1 %.not24, label %13, label %11

11:                                               ; preds = %.lr.ph
  %12 = getelementptr inbounds nuw i8, ptr %.02128, i64 8
  store ptr %2, ptr %12, align 8, !tbaa !22
  br label %19

13:                                               ; preds = %.lr.ph
  %14 = getelementptr inbounds nuw i8, ptr %.02128, i64 16
  %.021 = load ptr, ptr %14, align 8, !tbaa !13
  %.not = icmp eq ptr %.021, null
  br i1 %.not, label %._crit_edge, label %.lr.ph, !llvm.loop !24

._crit_edge:                                      ; preds = %13, %3
  %15 = tail call noalias dereferenceable_or_null(24) ptr @malloc(i64 noundef 24) #17
  %.not23 = icmp eq ptr %15, null
  br i1 %.not23, label %19, label %16

16:                                               ; preds = %._crit_edge
  store i32 %1, ptr %15, align 8, !tbaa !21
  %17 = getelementptr inbounds nuw i8, ptr %15, i64 8
  store ptr %2, ptr %17, align 8, !tbaa !22
  %18 = getelementptr inbounds nuw i8, ptr %15, i64 16
  store ptr %.02126, ptr %18, align 8, !tbaa !15
  store ptr %15, ptr %9, align 8, !tbaa !13
  br label %19

19:                                               ; preds = %._crit_edge, %16, %11
  %.0 = phi i32 [ 0, %11 ], [ 0, %16 ], [ -1, %._crit_edge ]
  ret i32 %.0
}